; Function Attrs: nounwind uwtable
define internal fastcc void @add_cast_to(ptr noundef %0, i32 noundef %1) unnamed_addr #0 {
  %3 = zext i32 %1 to i64
  %4 = tail call ptr @SearchSysCache1(i32 noundef 82, i64 noundef %3) #11
  %.not = icmp eq ptr %4, null
  br i1 %.not, label %5, label %8

5:                                                ; preds = %2
  %6 = tail call zeroext i1 @errstart_cold(i32 noundef 21, ptr noundef null) #12
  tail call void @llvm.assume(i1 %6)
  %7 = tail call i32 (ptr, ...) @errmsg_internal(ptr noundef nonnull @.str.418, i32 noundef %1) #11
  tail call void @errfinish(ptr noundef nonnull @.str.2, i32 noundef 13399, ptr noundef nonnull @__func__.add_cast_to) #11
  unreachable

8:                                                ; preds = %2
  %9 = getelementptr i8, ptr %4, i64 16
  %.val = load ptr, ptr %9, align 8
  %10 = getelementptr inbounds nuw i8, ptr %.val, i64 22
  %11 = load i8, ptr %10, align 2
  %12 = zext i8 %11 to i64
  %13 = getelementptr inbounds nuw i8, ptr %.val, i64 %12
  %14 = getelementptr inbounds nuw i8, ptr %13, i64 4
  %15 = getelementptr inbounds nuw i8, ptr %13, i64 68
  %16 = load i32, ptr %15, align 4
  %17 = tail call ptr @get_namespace_name_or_temp(i32 noundef %16) #11
  %18 = tail call ptr @quote_identifier(ptr noundef %17)
  %19 = tail call ptr @quote_identifier(ptr noundef nonnull %14)
  tail call void (ptr, ptr, ...) @appendStringInfo(ptr noundef %0, ptr noundef nonnull @.str.542, ptr noundef %18, ptr noundef %19) #11
  tail call void @ReleaseSysCache(ptr noundef nonnull %4) #11
  ret void
}